Certificate:
    Data:
        Version: 3 (0x2)
        Serial Number:
            72:bd:6c:ee:db:22:cc:6f:c6:a4:7f:48:85:49:e6:2f:08:9c:7a:57
        Signature Algorithm: sha256WithRSAEncryption
        Issuer: C=US, ST=CA, O=Amadeus, Inc., CN=root-ca
        Validity
            Not Before: Aug 17 08:32:11 2020 GMT
            Not After : Nov 20 08:32:11 2022 GMT
        Subject: C=US, ST=CA, O=SubOrg, Inc., CN=localhost:8888
        Subject Public Key Info:
            Public Key Algorithm: rsaEncryption
                RSA Public-Key: (2048 bit)
                Modulus:
                    00:d9:62:3c:7f:7e:d6:33:cb:da:c9:f0:07:64:48:
                    a4:b0:89:a0:44:80:cf:c0:a0:60:29:a2:e2:cc:38:
                    9d:1a:bc:8d:eb:aa:a8:e8:13:e7:46:27:84:56:db:
                    34:77:05:f1:ed:34:82:e5:26:0d:01:5b:97:9b:85:
                    22:4c:7d:2f:76:a6:79:58:b9:5b:29:f1:68:6e:30:
                    ce:3a:07:2e:67:23:37:c5:c7:c4:86:a3:ee:fb:06:
                    64:07:18:c9:c9:c4:55:10:ad:d3:5e:c4:b4:f2:dc:
                    c5:93:59:76:08:f6:e3:c1:53:9e:d6:1b:81:68:9a:
                    0a:8a:24:55:bc:a5:4a:38:62:91:5f:f0:38:98:df:
                    2e:41:59:16:22:40:e3:81:23:b8:ba:0f:99:50:6c:
                    c4:3a:d1:60:a4:df:a0:2d:ba:33:46:56:dd:cd:c2:
                    04:0b:1c:03:cf:cf:4c:c2:d5:1b:d7:dc:a7:25:cc:
                    a7:1d:dd:f1:e3:6f:18:61:fa:f0:1f:58:b8:bc:eb:
                    6a:11:da:8a:8f:59:fc:ad:14:ef:14:98:5e:7b:a7:
                    cb:9f:9f:78:c9:9c:69:41:fc:26:3d:83:27:1b:28:
                    dc:10:b3:55:72:1c:dd:87:a6:e9:a0:07:b4:06:5c:
                    9e:60:b6:51:b2:4b:cc:5c:2a:12:0b:6f:62:83:26:
                    3a:d5
                Exponent: 65537 (0x10001)
        X509v3 extensions:
            X509v3 Subject Alternative Name: 
                DNS:haproxy, DNS:ha, DNS:rp, DNS:localhost, DNS:localhost:8888, DNS:localhost:8899
    Signature Algorithm: sha256WithRSAEncryption
         1c:50:9d:11:e0:1d:67:a1:99:82:de:7f:59:9d:1f:dc:8b:46:
         42:f6:e2:4b:79:46:5b:a9:27:b2:51:6d:5a:5a:4c:de:27:8c:
         fa:4c:67:4f:f9:9b:26:f5:ac:9f:4d:1c:df:a1:2a:ac:89:47:
         e0:3c:61:ee:3a:96:e3:e0:7a:8b:8f:d5:fe:49:3e:ef:fb:f3:
         db:8b:d5:5a:e8:05:9b:67:01:54:5f:df:90:b4:6c:42:70:fa:
         44:23:6c:15:3b:4f:fe:da:3a:f6:96:b7:09:16:01:44:25:ab:
         6b:f9:06:26:e9:7f:75:d7:cd:ee:f9:87:9b:a5:ae:f9:47:da:
         1e:0e:b7:ab:78:8f:fd:66:48:3f:61:97:74:a7:5a:45:c4:60:
         fa:6d:97:4a:d5:bd:49:18:8a:80:0d:66:bb:35:92:4b:70:8c:
         f2:9f:4b:7e:2a:3e:66:cc:53:24:8d:ee:3b:e6:43:57:d0:d2:
         28:49:7a:1c:3d:81:07:96:59:d7:2a:d1:21:c6:81:5e:4c:05:
         5e:6f:46:f3:e7:af:b1:b7:76:fc:d6:e7:d3:05:36:7d:91:c9:
         b5:ad:c0:0a:5a:4a:23:ba:06:4a:e8:ac:2d:97:a6:1a:2f:0e:
         79:dc:c4:ca:cc:8a:88:89:b8:2d:7a:66:cb:ce:de:61:88:68:
         11:2f:29:ca
-----BEGIN CERTIFICATE-----
MIIDZTCCAk2gAwIBAgIUcr1s7tsizG/GpH9IhUnmLwicelcwDQYJKoZIhvcNAQEL
BQAwRDELMAkGA1UEBhMCVVMxCzAJBgNVBAgMAkNBMRYwFAYDVQQKDA1BbWFkZXVz
LCBJbmMuMRAwDgYDVQQDDAdyb290LWNhMB4XDTIwMDgxNzA4MzIxMVoXDTIyMTEy
MDA4MzIxMVowSjELMAkGA1UEBhMCVVMxCzAJBgNVBAgMAkNBMRUwEwYDVQQKDAxT
dWJPcmcsIEluYy4xFzAVBgNVBAMMDmxvY2FsaG9zdDo4ODg4MIIBIjANBgkqhkiG
9w0BAQEFAAOCAQ8AMIIBCgKCAQEA2WI8f37WM8vayfAHZEiksImgRIDPwKBgKaLi
zDidGryN66qo6BPnRieEVts0dwXx7TSC5SYNAVuXm4UiTH0vdqZ5WLlbKfFobjDO
OgcuZyM3xcfEhqPu+wZkBxjJycRVEK3TXsS08tzFk1l2CPbjwVOe1huBaJoKiiRV
vKVKOGKRX/A4mN8uQVkWIkDjgSO4ug+ZUGzEOtFgpN+gLbozRlbdzcIECxwDz89M
wtUb19ynJcynHd3x428YYfrwH1i4vOtqEdqKj1n8rRTvFJhee6fLn594yZxpQfwm
PYMnGyjcELNVchzdh6bpoAe0BlyeYLZRskvMXCoSC29igyY61QIDAQABo0kwRzBF
BgNVHREEPjA8ggdoYXByb3h5ggJoYYICcnCCCWxvY2FsaG9zdIIObG9jYWxob3N0
Ojg4ODiCDmxvY2FsaG9zdDo4ODk5MA0GCSqGSIb3DQEBCwUAA4IBAQAcUJ0R4B1n
oZmC3n9ZnR/ci0ZC9uJLeUZbqSeyUW1aWkzeJ4z6TGdP+Zsm9ayfTRzfoSqsiUfg
PGHuOpbj4HqLj9X+ST7v+/Pbi9Va6AWbZwFUX9+QtGxCcPpEI2wVO0/+2jr2lrcJ
FgFEJatr+QYm6X91183u+Yebpa75R9oeDrereI/9Zkg/YZd0p1pFxGD6bZdK1b1J
GIqADWa7NZJLcIzyn0t+Kj5mzFMkje475kNX0NIoSXocPYEHllnXKtEhxoFeTAVe
b0bz56+xt3b81ufTBTZ9kcm1rcAKWkojugZK6Kwtl6YaLw553MTKzIqIibgtembL
zt5hiGgRLynK
-----END CERTIFICATE-----
