Certificate:
    Data:
        Version: 3 (0x2)
        Serial Number:
            72:bd:6c:ee:db:22:cc:6f:c6:a4:7f:48:85:49:e6:2f:08:9c:7a:56
        Signature Algorithm: sha256WithRSAEncryption
        Issuer: C=US, ST=CA, O=Amadeus, Inc., CN=root-ca
        Validity
            Not Before: Aug 14 14:05:23 2020 GMT
            Not After : Nov 17 14:05:23 2022 GMT
        Subject: C=US, ST=CA, O=cCBD, CN=localhost
        Subject Public Key Info:
            Public Key Algorithm: rsaEncryption
                RSA Public-Key: (2048 bit)
                Modulus:
                    00:e8:40:02:d5:56:ef:c2:41:9e:2a:7f:b7:42:08:
                    24:41:ef:03:d5:be:06:2d:98:8e:c1:cd:7b:17:7c:
                    ee:32:52:50:67:de:32:ed:c8:4b:de:72:8e:48:9f:
                    72:8b:2e:b5:6d:a8:ca:78:a6:71:85:08:b0:3f:72:
                    02:9d:0b:8a:6a:b4:a6:e7:a1:11:6d:eb:38:77:b5:
                    c0:2d:8c:cb:2d:7a:3f:eb:01:38:93:26:40:ef:ca:
                    37:47:6f:53:a7:de:c3:08:49:23:c7:a8:1a:99:ba:
                    9a:86:87:56:00:b2:e3:1d:84:55:63:d8:0b:d2:71:
                    96:49:37:91:93:38:7c:09:a8:b7:ed:11:e3:b6:56:
                    fc:ea:6c:c4:87:62:d4:5b:06:dd:e4:89:b5:6c:52:
                    5f:ba:d3:c9:1f:58:5d:89:31:01:6f:9c:23:3a:b8:
                    13:f2:31:6c:7e:5a:2b:80:0d:0d:78:80:27:25:7e:
                    f2:8c:f7:12:a9:f7:8a:6a:48:0f:be:53:b4:44:c2:
                    96:6d:b5:48:8f:ed:f0:5d:d5:3f:cd:90:cc:6c:be:
                    b3:33:d8:1d:d6:ee:e4:e8:69:c8:5b:8d:3f:82:b3:
                    66:e4:9b:53:26:31:71:93:22:9c:b4:d1:19:4b:fd:
                    95:ac:a8:b3:3b:54:4b:84:62:5c:d0:06:7e:f9:a0:
                    1a:bf
                Exponent: 65537 (0x10001)
        X509v3 extensions:
            X509v3 Subject Alternative Name: 
                DNS:haproxy, DNS:ha, DNS:rp, DNS:127.0.0.1, DNS:localhost, DNS:0.0.0.0
    Signature Algorithm: sha256WithRSAEncryption
         bf:70:1f:12:06:87:f7:74:de:e6:7e:48:0d:e7:6a:86:3e:8b:
         39:b2:cc:c8:23:b5:95:b2:b2:b2:e1:b8:23:92:e0:25:a0:de:
         e9:a1:80:e9:fa:bd:29:f7:14:3b:d8:3a:cb:24:18:43:2a:5a:
         bc:a6:c6:da:1b:d4:95:99:1d:c0:9a:7a:29:27:59:73:72:20:
         fa:5d:81:d5:f1:69:b1:d2:f3:9f:14:92:38:7f:8b:a3:36:5c:
         0a:7f:2b:36:79:f8:85:a2:4f:58:af:5f:12:ab:ea:da:77:02:
         f5:ca:bb:67:59:11:09:86:c6:55:35:c5:93:23:6a:fc:05:3e:
         70:47:28:5f:e9:30:da:2d:20:06:aa:6a:bb:5c:18:54:83:94:
         7f:67:af:a1:0d:c7:e3:c4:c5:eb:22:b8:18:33:95:58:0e:75:
         c2:3a:cb:d4:f6:58:52:22:da:f5:e9:d6:8e:59:cc:90:40:e3:
         53:b3:f0:98:2b:96:61:2d:7b:a7:f2:fd:57:76:67:73:07:cd:
         08:23:62:b8:e1:a8:cd:04:a6:9e:1f:7e:10:b2:49:7a:82:9d:
         4d:e3:5c:db:02:fe:dd:33:be:78:ae:6f:09:3d:0d:c9:e4:32:
         d0:2b:02:2d:2b:ff:30:07:ca:f0:29:d7:26:db:ef:10:90:4f:
         3a:e4:5f:7d
-----BEGIN CERTIFICATE-----
MIIDTDCCAjSgAwIBAgIUcr1s7tsizG/GpH9IhUnmLwicelYwDQYJKoZIhvcNAQEL
BQAwRDELMAkGA1UEBhMCVVMxCzAJBgNVBAgMAkNBMRYwFAYDVQQKDA1BbWFkZXVz
LCBJbmMuMRAwDgYDVQQDDAdyb290LWNhMB4XDTIwMDgxNDE0MDUyM1oXDTIyMTEx
NzE0MDUyM1owPTELMAkGA1UEBhMCVVMxCzAJBgNVBAgMAkNBMQ0wCwYDVQQKDARj
Q0JEMRIwEAYDVQQDDAlsb2NhbGhvc3QwggEiMA0GCSqGSIb3DQEBAQUAA4IBDwAw
ggEKAoIBAQDoQALVVu/CQZ4qf7dCCCRB7wPVvgYtmI7BzXsXfO4yUlBn3jLtyEve
co5In3KLLrVtqMp4pnGFCLA/cgKdC4pqtKbnoRFt6zh3tcAtjMstej/rATiTJkDv
yjdHb1On3sMISSPHqBqZupqGh1YAsuMdhFVj2AvScZZJN5GTOHwJqLftEeO2Vvzq
bMSHYtRbBt3kibVsUl+608kfWF2JMQFvnCM6uBPyMWx+WiuADQ14gCclfvKM9xKp
94pqSA++U7REwpZttUiP7fBd1T/NkMxsvrMz2B3W7uToachbjT+Cs2bkm1MmMXGT
Ipy00RlL/ZWsqLM7VEuEYlzQBn75oBq/AgMBAAGjPTA7MDkGA1UdEQQyMDCCB2hh
cHJveHmCAmhhggJycIIJMTI3LjAuMC4xgglsb2NhbGhvc3SCBzAuMC4wLjAwDQYJ
KoZIhvcNAQELBQADggEBAL9wHxIGh/d03uZ+SA3naoY+izmyzMgjtZWysrLhuCOS
4CWg3umhgOn6vSn3FDvYOsskGEMqWrymxtob1JWZHcCaeiknWXNyIPpdgdXxabHS
858Ukjh/i6M2XAp/KzZ5+IWiT1ivXxKr6tp3AvXKu2dZEQmGxlU1xZMjavwFPnBH
KF/pMNotIAaqartcGFSDlH9nr6ENx+PExesiuBgzlVgOdcI6y9T2WFIi2vXp1o5Z
zJBA41Oz8JgrlmEte6fy/Vd2Z3MHzQgjYrjhqM0Epp4ffhCySXqCnU3jXNsC/t0z
vniubwk9DcnkMtArAi0r/zAHyvAp1ybb7xCQTzrkX30=
-----END CERTIFICATE-----
-----BEGIN PRIVATE KEY-----
MIIEvwIBADANBgkqhkiG9w0BAQEFAASCBKkwggSlAgEAAoIBAQDoQALVVu/CQZ4q
f7dCCCRB7wPVvgYtmI7BzXsXfO4yUlBn3jLtyEveco5In3KLLrVtqMp4pnGFCLA/
cgKdC4pqtKbnoRFt6zh3tcAtjMstej/rATiTJkDvyjdHb1On3sMISSPHqBqZupqG
h1YAsuMdhFVj2AvScZZJN5GTOHwJqLftEeO2VvzqbMSHYtRbBt3kibVsUl+608kf
WF2JMQFvnCM6uBPyMWx+WiuADQ14gCclfvKM9xKp94pqSA++U7REwpZttUiP7fBd
1T/NkMxsvrMz2B3W7uToachbjT+Cs2bkm1MmMXGTIpy00RlL/ZWsqLM7VEuEYlzQ
Bn75oBq/AgMBAAECggEACRCmi6kvBogFImeFwaALuj8YCTm3iAQSXmIk0c/ghDpO
RR+ZIUrWG0KhZxhCIkiacENMU9U7TRP/vRo4G+Uda/jNIvFYes/ZjmKbs6txKr9A
y21qxeOSWUmtSq5/t2eseSBRszNOhn2QFnwl0TUqRDasFo+SNo6UbRssJXDo9n96
VUblZgEJIN8xNksyxwnSEPq5zmm1mhartX3XDut2KP/GIVH4g+0v6GKozBn+4cKL
QqPzgcmpJ+jHNTGuNYm+kTBZ0ZGMgEIi28FeKHexfnE/El3ID3IEnbI7xNR7KVrk
HqE62nzi9h8Rw9Ow8XvkPiDqpT0PB3wIALbxTRLs0QKBgQD1zuBzIhWOSvM0WK80
aouRJJLfXx9btUW4s44jAzLC7s+oj/0qTS1Zrjyf1i91j5BjEN6gG7ydoA30d54y
OXLlfu86VlPQYCfZr6/YpLFCFgkyE3ewSz5mxMuSRH/H4o2rZM95zeIb2V7XMYfl
Km8dK8qHAhkE2i1lu+rCIpyhSwKBgQDx4Tj6ZZNiBbkBHz+ghCMe1YB3EEAGPl8/
cQoGAaND3HoaFQDIoQrlOFcSfibzzl+NHoNI3GUyOsHXzVh2Hc1hy1aPvV+pPoWG
x1fZ3aEYb6eKxdIS88NNISGRQUK1sMFOdkD+AHefFQhvwZbJh8C8wTPDID3Z7PP3
ND0phe133QKBgQDmPTKLZR+fuqB3JaJmjG3SM9nGlEjBE9gMm1LFhNdlM18a2lQd
7VBPMh7i8DJgAWsS/9gnTBOt6R9pHyn0jU8Lm4vkrruu8IIjKqahXBIUfqN6XjW7
0Z7PkAHGLZcq2RAtvC2CP9BMmZx2IJTTmJ2fS0dWkiZxHxNquUu5L8ZaZQKBgQDT
O134BlbkhpzfJvv44QyOs+Mhl3ZiPXwOulgHkMyUyelz952cmE8ciMw5oSPBTRvS
8K+0JIzXhcqc/H5hgHtJCTuKAdaVxbz0TAgjglJaNb/6B/ICjRCkvedDo9tvMnJO
ZCUz7RKKQeMBPe3CB6TA8nSS1ghN1Ynk+6DiL0yHnQKBgQDMsFIK1c3kQfGpqNc1
mGhpD1r1X54vGk+tBzPFrGRpf7V7vbL4X2t1kpsPBb2Vm/PNOjZeIU8ApK0Zu8s4
BwhG0cLcSu+r4tc6G6XMp+T4WMcPUe3+kevw5xCMxqURB1ohjFHtC1Gacv4y0Va5
WJqe3lWLf5cwYAod9IV5jR3lEw==
-----END PRIVATE KEY-----
